target datalayout = "e-m:e-p270:32:32-p271:32:32-p272:64:64-i64:64-i128:128-f80:128-n8:16:32:64-S128"
target triple = "x86_64-pc-linux-gnu"

%struct.ssl_st = type { i32, ptr, ptr, ptr, %struct.CRYPTO_REF_COUNT, ptr, %struct.crypto_ex_data_st }
%struct.CRYPTO_REF_COUNT = type { i32 }
%struct.crypto_ex_data_st = type { ptr, ptr }
%struct.OSSL_TIME = type { i64 }
%struct.srp_ctx_st = type { ptr, ptr, ptr, ptr, ptr, ptr, ptr, ptr, ptr, ptr, ptr, ptr, ptr, ptr, i32, i64 }
%struct.ssl_ctx_st = type { ptr, ptr, ptr, ptr, ptr, ptr, ptr, i64, ptr, ptr, i32, %struct.OSSL_TIME, ptr, ptr, ptr, %struct.anon.3, %struct.CRYPTO_REF_COUNT, ptr, ptr, ptr, ptr, ptr, ptr, ptr, ptr, ptr, %struct.crypto_ex_data_st, ptr, ptr, ptr, ptr, ptr, ptr, ptr, i64, i32, i32, i32, i64, ptr, ptr, i32, ptr, ptr, i32, i64, [32 x i8], ptr, ptr, ptr, i32, ptr, ptr, ptr, i64, i64, i64, i64, ptr, ptr, ptr, ptr, ptr, %struct.anon.4, ptr, ptr, ptr, ptr, %struct.srp_ctx_st, %struct.dane_ctx_st, ptr, ptr, ptr, ptr, i32, i32, ptr, ptr, i64, i64, ptr, ptr, ptr, i64, ptr, ptr, i32, ptr, ptr, ptr, [14 x i32], [24 x ptr], [14 x ptr], [14 x i64], i64, ptr, ptr, ptr, i64, i64, ptr, i64, i64, i32, i32, i32, i32, ptr, i64, ptr, i64, i64, ptr, ptr }
%struct.anon.3 = type { i32, i32, i32, i32, i32, i32, i32, i32, i32, i32, i32 }
%struct.anon.4 = type { ptr, ptr, [16 x i8], ptr, ptr, ptr, ptr, ptr, i32, i8, i64, ptr, i64, ptr, i64, ptr, i64, ptr, ptr, i64, ptr, ptr, ptr, i64, ptr, ptr, ptr, ptr, [32 x i8] }
%struct.dane_ctx_st = type { ptr, ptr, i8, i64 }

@.str.501 = private unnamed_addr constant [27 x i8] c"raw_public_key, length=%d\0A\00", align 1

; Function Attrs: nounwind uwtable
define internal i32 @ssl_print_raw_public_key(ptr noundef %0, ptr noundef %1, i32 noundef %2, i32 noundef %3, ptr noundef %4, ptr noundef %5) #0 {
  %7 = alloca i32, align 4
  %8 = alloca ptr, align 8
  %9 = alloca ptr, align 8
  %10 = alloca i32, align 4
  %11 = alloca i32, align 4
  %12 = alloca ptr, align 8
  %13 = alloca ptr, align 8
  %14 = alloca ptr, align 8
  %15 = alloca i64, align 8
  %16 = alloca ptr, align 8
  %17 = alloca i64, align 8
  %18 = alloca i32, align 4
  store ptr %0, ptr %8, align 8, !tbaa !15
  store ptr %1, ptr %9, align 8, !tbaa !11
  store i32 %2, ptr %10, align 4, !tbaa !3
  store i32 %3, ptr %11, align 4, !tbaa !3
  store ptr %4, ptr %12, align 8, !tbaa !98
  store ptr %5, ptr %13, align 8, !tbaa !100
  call void @llvm.lifetime.start.p0(i64 8, ptr %14) #3
  call void @llvm.lifetime.start.p0(i64 8, ptr %15) #3
  call void @llvm.lifetime.start.p0(i64 8, ptr %16) #3
  %19 = load ptr, ptr %12, align 8, !tbaa !98
  %20 = load ptr, ptr %19, align 8, !tbaa !13
  store ptr %20, ptr %16, align 8, !tbaa !13
  call void @llvm.lifetime.start.p0(i64 8, ptr %17) #3
  %21 = load ptr, ptr %13, align 8, !tbaa !100
  %22 = load i64, ptr %21, align 8, !tbaa !9
  store i64 %22, ptr %17, align 8, !tbaa !9
  %23 = load i64, ptr %17, align 8, !tbaa !9
  %24 = icmp ult i64 %23, 3
  br i1 %24, label %25, label %26

25:                                               ; preds = %6
  store i32 0, ptr %7, align 4
  store i32 1, ptr %18, align 4
  br label %91

26:                                               ; preds = %6
  %27 = load ptr, ptr %16, align 8, !tbaa !13
  %28 = getelementptr inbounds i8, ptr %27, i64 0
  %29 = load i8, ptr %28, align 1, !tbaa !84
  %30 = zext i8 %29 to i32
  %31 = shl i32 %30, 16
  %32 = load ptr, ptr %16, align 8, !tbaa !13
  %33 = getelementptr inbounds i8, ptr %32, i64 1
  %34 = load i8, ptr %33, align 1, !tbaa !84
  %35 = zext i8 %34 to i32
  %36 = shl i32 %35, 8
  %37 = or i32 %31, %36
  %38 = load ptr, ptr %16, align 8, !tbaa !13
  %39 = getelementptr inbounds i8, ptr %38, i64 2
  %40 = load i8, ptr %39, align 1, !tbaa !84
  %41 = zext i8 %40 to i32
  %42 = or i32 %37, %41
  %43 = sext i32 %42 to i64
  store i64 %43, ptr %15, align 8, !tbaa !9
  %44 = load i64, ptr %17, align 8, !tbaa !9
  %45 = load i64, ptr %15, align 8, !tbaa !9
  %46 = add i64 %45, 3
  %47 = icmp ult i64 %44, %46
  br i1 %47, label %48, label %49

48:                                               ; preds = %26
  store i32 0, ptr %7, align 4
  store i32 1, ptr %18, align 4
  br label %91

49:                                               ; preds = %26
  %50 = load ptr, ptr %16, align 8, !tbaa !13
  %51 = getelementptr inbounds i8, ptr %50, i64 3
  store ptr %51, ptr %16, align 8, !tbaa !13
  %52 = load ptr, ptr %8, align 8, !tbaa !15
  %53 = load i32, ptr %11, align 4, !tbaa !3
  %54 = call i32 @BIO_indent(ptr noundef %52, i32 noundef %53, i32 noundef 80)
  %55 = load ptr, ptr %8, align 8, !tbaa !15
  %56 = load i64, ptr %15, align 8, !tbaa !9
  %57 = trunc i64 %56 to i32
  %58 = call i32 (ptr, ptr, ...) @BIO_printf(ptr noundef %55, ptr noundef @.str.501, i32 noundef %57)
  %59 = load i64, ptr %15, align 8, !tbaa !9
  %60 = load ptr, ptr %9, align 8, !tbaa !11
  %61 = getelementptr inbounds nuw %struct.ssl_st, ptr %60, i32 0, i32 1
  %62 = load ptr, ptr %61, align 8, !tbaa !111
  %63 = getelementptr inbounds nuw %struct.ssl_ctx_st, ptr %62, i32 0, i32 0
  %64 = load ptr, ptr %63, align 8, !tbaa !112
  %65 = load ptr, ptr %9, align 8, !tbaa !11
  %66 = getelementptr inbounds nuw %struct.ssl_st, ptr %65, i32 0, i32 1
  %67 = load ptr, ptr %66, align 8, !tbaa !111
  %68 = getelementptr inbounds nuw %struct.ssl_ctx_st, ptr %67, i32 0, i32 89
  %69 = load ptr, ptr %68, align 8, !tbaa !127
  %70 = call ptr @d2i_PUBKEY_ex(ptr noundef null, ptr noundef %16, i64 noundef %59, ptr noundef %64, ptr noundef %69)
  store ptr %70, ptr %14, align 8, !tbaa !128
  %71 = load ptr, ptr %14, align 8, !tbaa !128
  %72 = icmp eq ptr %71, null
  br i1 %72, label %73, label %74

73:                                               ; preds = %49
  store i32 0, ptr %7, align 4
  store i32 1, ptr %18, align 4
  br label %91

74:                                               ; preds = %49
  %75 = load ptr, ptr %8, align 8, !tbaa !15
  %76 = load ptr, ptr %14, align 8, !tbaa !128
  %77 = load i32, ptr %11, align 4, !tbaa !3
  %78 = add nsw i32 %77, 2
  %79 = call i32 @EVP_PKEY_print_public(ptr noundef %75, ptr noundef %76, i32 noundef %78, ptr noundef null)
  %80 = load ptr, ptr %14, align 8, !tbaa !128
  call void @EVP_PKEY_free(ptr noundef %80)
  %81 = load i64, ptr %15, align 8, !tbaa !9
  %82 = add i64 %81, 3
  %83 = load ptr, ptr %12, align 8, !tbaa !98
  %84 = load ptr, ptr %83, align 8, !tbaa !13
  %85 = getelementptr inbounds nuw i8, ptr %84, i64 %82
  store ptr %85, ptr %83, align 8, !tbaa !13
  %86 = load i64, ptr %15, align 8, !tbaa !9
  %87 = add i64 %86, 3
  %88 = load ptr, ptr %13, align 8, !tbaa !100
  %89 = load i64, ptr %88, align 8, !tbaa !9
  %90 = sub i64 %89, %87
  store i64 %90, ptr %88, align 8, !tbaa !9
  store i32 1, ptr %7, align 4
  store i32 1, ptr %18, align 4
  br label %91

91:                                               ; preds = %74, %73, %48, %25
  call void @llvm.lifetime.end.p0(i64 8, ptr %17) #3
  call void @llvm.lifetime.end.p0(i64 8, ptr %16) #3
  call void @llvm.lifetime.end.p0(i64 8, ptr %15) #3
  call void @llvm.lifetime.end.p0(i64 8, ptr %14) #3
  %92 = load i32, ptr %7, align 4
  ret i32 %92
}