; Function Attrs: nounwind uwtable
define internal fastcc range(i32 0, 2) i32 @ssl_print_raw_public_key(ptr noundef %0, ptr noundef nonnull readonly captures(none) %1, ptr noundef nonnull captures(none) %2, ptr noundef nonnull captures(none) %3) unnamed_addr #0 {
  %5 = alloca ptr, align 8
  call void @llvm.lifetime.start.p0(i64 8, ptr nonnull %5) #3
  %6 = load ptr, ptr %2, align 8, !tbaa !83
  %7 = load i64, ptr %3, align 8, !tbaa !84
  %8 = icmp ult i64 %7, 3
  br i1 %8, label %42, label %9

9:                                                ; preds = %4
  %10 = load i8, ptr %6, align 1, !tbaa !75
  %11 = zext i8 %10 to i32
  %12 = shl nuw nsw i32 %11, 16
  %13 = getelementptr inbounds nuw i8, ptr %6, i64 1
  %14 = load i8, ptr %13, align 1, !tbaa !75
  %15 = zext i8 %14 to i32
  %16 = shl nuw nsw i32 %15, 8
  %17 = or disjoint i32 %16, %12
  %18 = getelementptr inbounds nuw i8, ptr %6, i64 2
  %19 = load i8, ptr %18, align 1, !tbaa !75
  %20 = zext i8 %19 to i32
  %21 = or disjoint i32 %17, %20
  %22 = zext nneg i32 %21 to i64
  %23 = add nuw nsw i64 %22, 3
  %24 = icmp ult i64 %7, %23
  br i1 %24, label %42, label %25

25:                                               ; preds = %9
  %26 = getelementptr inbounds nuw i8, ptr %6, i64 3
  store ptr %26, ptr %5, align 8, !tbaa !83
  %27 = tail call i32 @BIO_indent(ptr noundef %0, i32 noundef 6, i32 noundef 80) #3
  %28 = tail call i32 (ptr, ptr, ...) @BIO_printf(ptr noundef %0, ptr noundef nonnull @.str.501, i32 noundef %21) #3
  %29 = getelementptr inbounds nuw i8, ptr %1, i64 8
  %30 = load ptr, ptr %29, align 8, !tbaa !118
  %31 = load ptr, ptr %30, align 8, !tbaa !94
  %32 = getelementptr inbounds nuw i8, ptr %30, i64 1152
  %33 = load ptr, ptr %32, align 8, !tbaa !109
  %34 = call ptr @d2i_PUBKEY_ex(ptr noundef null, ptr noundef nonnull %5, i64 noundef %22, ptr noundef %31, ptr noundef %33) #3
  %35 = icmp eq ptr %34, null
  br i1 %35, label %42, label %36

36:                                               ; preds = %25
  %37 = call i32 @EVP_PKEY_print_public(ptr noundef %0, ptr noundef nonnull %34, i32 noundef 8, ptr noundef null) #3
  call void @EVP_PKEY_free(ptr noundef nonnull %34) #3
  %38 = load ptr, ptr %2, align 8, !tbaa !83
  %39 = getelementptr inbounds nuw i8, ptr %38, i64 %23
  store ptr %39, ptr %2, align 8, !tbaa !83
  %40 = load i64, ptr %3, align 8, !tbaa !84
  %41 = sub i64 %40, %23
  store i64 %41, ptr %3, align 8, !tbaa !84
  br label %42

42:                                               ; preds = %25, %9, %4, %36
  %.0 = phi i32 [ 1, %36 ], [ 0, %4 ], [ 0, %9 ], [ 0, %25 ]
  call void @llvm.lifetime.end.p0(i64 8, ptr nonnull %5) #3
  ret i32 %.0
}